target datalayout = "e-m:e-p270:32:32-p271:32:32-p272:64:64-i64:64-i128:128-f80:128-n8:16:32:64-S128"
target triple = "x86_64-pc-linux-gnu"

%struct.Gia_Rpr_t_ = type { i32 }

; Function Attrs: inlinehint nounwind uwtable
define internal i32 @Gia_AigerReadUnsigned(ptr noundef %0) #2 {
  %2 = alloca ptr, align 8
  %3 = alloca i32, align 4
  %4 = alloca i32, align 4
  %5 = alloca i8, align 1
  store ptr %0, ptr %2, align 8, !tbaa !3
  call void @llvm.lifetime.start.p0(i64 4, ptr %3) #10
  store i32 0, ptr %3, align 4, !tbaa !8
  call void @llvm.lifetime.start.p0(i64 4, ptr %4) #10
  store i32 0, ptr %4, align 4, !tbaa !8
  call void @llvm.lifetime.start.p0(i64 1, ptr %5) #10
  br label %6

6:                                                ; preds = %14, %1
  %7 = load ptr, ptr %2, align 8, !tbaa !3
  %8 = load ptr, ptr %7, align 8, !tbaa !10
  %9 = getelementptr inbounds nuw i8, ptr %8, i32 1
  store ptr %9, ptr %7, align 8, !tbaa !10
  %10 = load i8, ptr %8, align 1, !tbaa !17
  store i8 %10, ptr %5, align 1, !tbaa !17
  %11 = zext i8 %10 to i32
  %12 = and i32 %11, 128
  %13 = icmp ne i32 %12, 0
  br i1 %13, label %14, label %24

14:                                               ; preds = %6
  %15 = load i8, ptr %5, align 1, !tbaa !17
  %16 = zext i8 %15 to i32
  %17 = and i32 %16, 127
  %18 = load i32, ptr %4, align 4, !tbaa !8
  %19 = add i32 %18, 1
  store i32 %19, ptr %4, align 4, !tbaa !8
  %20 = mul i32 7, %18
  %21 = shl i32 %17, %20
  %22 = load i32, ptr %3, align 4, !tbaa !8
  %23 = or i32 %22, %21
  store i32 %23, ptr %3, align 4, !tbaa !8
  br label %6, !llvm.loop !19

24:                                               ; preds = %6
  %25 = load i32, ptr %3, align 4, !tbaa !8
  %26 = load i8, ptr %5, align 1, !tbaa !17
  %27 = zext i8 %26 to i32
  %28 = load i32, ptr %4, align 4, !tbaa !8
  %29 = mul i32 7, %28
  %30 = shl i32 %27, %29
  %31 = or i32 %25, %30
  call void @llvm.lifetime.end.p0(i64 1, ptr %5) #10
  call void @llvm.lifetime.end.p0(i64 4, ptr %4) #10
  call void @llvm.lifetime.end.p0(i64 4, ptr %3) #10
  ret i32 %31
}

; Function Attrs: inlinehint nounwind uwtable
define internal i32 @Gia_AigerReadInt(ptr noundef %0) #2 {
  %2 = alloca ptr, align 8
  %3 = alloca i32, align 4
  %4 = alloca i32, align 4
  store ptr %0, ptr %2, align 8, !tbaa !10
  call void @llvm.lifetime.start.p0(i64 4, ptr %3) #10
  call void @llvm.lifetime.start.p0(i64 4, ptr %4) #10
  store i32 0, ptr %4, align 4, !tbaa !8
  store i32 0, ptr %3, align 4, !tbaa !8
  br label %5

5:                                                ; preds = %16, %1
  %6 = load i32, ptr %3, align 4, !tbaa !8
  %7 = icmp slt i32 %6, 4
  br i1 %7, label %8, label %19

8:                                                ; preds = %5
  %9 = load i32, ptr %4, align 4, !tbaa !8
  %10 = shl i32 %9, 8
  %11 = load ptr, ptr %2, align 8, !tbaa !10
  %12 = getelementptr inbounds nuw i8, ptr %11, i32 1
  store ptr %12, ptr %2, align 8, !tbaa !10
  %13 = load i8, ptr %11, align 1, !tbaa !17
  %14 = zext i8 %13 to i32
  %15 = or i32 %10, %14
  store i32 %15, ptr %4, align 4, !tbaa !8
  br label %16

16:                                               ; preds = %8
  %17 = load i32, ptr %3, align 4, !tbaa !8
  %18 = add nsw i32 %17, 1
  store i32 %18, ptr %3, align 4, !tbaa !8
  br label %5, !llvm.loop !18

19:                                               ; preds = %5
  %20 = load i32, ptr %4, align 4, !tbaa !8
  call void @llvm.lifetime.end.p0(i64 4, ptr %4) #10
  call void @llvm.lifetime.end.p0(i64 4, ptr %3) #10
  ret i32 %20
}

; Function Attrs: nounwind uwtable
define ptr @Gia_AigerReadEquivClasses(ptr noundef %0, i32 noundef %1) #0 {
  %3 = alloca ptr, align 8
  %4 = alloca i32, align 4
  %5 = alloca ptr, align 8
  %6 = alloca ptr, align 8
  %7 = alloca i32, align 4
  %8 = alloca i32, align 4
  %9 = alloca i32, align 4
  %10 = alloca i32, align 4
  %11 = alloca i32, align 4
  store ptr %0, ptr %3, align 8, !tbaa !3
  store i32 %1, ptr %4, align 4, !tbaa !8
  call void @llvm.lifetime.start.p0(i64 8, ptr %5) #10
  call void @llvm.lifetime.start.p0(i64 8, ptr %6) #10
  call void @llvm.lifetime.start.p0(i64 4, ptr %7) #10
  call void @llvm.lifetime.start.p0(i64 4, ptr %8) #10
  call void @llvm.lifetime.start.p0(i64 4, ptr %9) #10
  call void @llvm.lifetime.start.p0(i64 4, ptr %10) #10
  call void @llvm.lifetime.start.p0(i64 4, ptr %11) #10
  %12 = load ptr, ptr %3, align 8, !tbaa !3
  %13 = load ptr, ptr %12, align 8, !tbaa !10
  store ptr %13, ptr %6, align 8, !tbaa !10
  %14 = load ptr, ptr %3, align 8, !tbaa !3
  %15 = load ptr, ptr %14, align 8, !tbaa !10
  %16 = call i32 @Gia_AigerReadInt(ptr noundef %15)
  %17 = load ptr, ptr %6, align 8, !tbaa !10
  %18 = sext i32 %16 to i64
  %19 = getelementptr inbounds i8, ptr %17, i64 %18
  store ptr %19, ptr %6, align 8, !tbaa !10
  %20 = load ptr, ptr %3, align 8, !tbaa !3
  %21 = load ptr, ptr %20, align 8, !tbaa !10
  %22 = getelementptr inbounds i8, ptr %21, i64 4
  store ptr %22, ptr %20, align 8, !tbaa !10
  %23 = load i32, ptr %4, align 4, !tbaa !8
  %24 = sext i32 %23 to i64
  %25 = call noalias ptr @calloc(i64 noundef %24, i64 noundef 4) #11
  store ptr %25, ptr %5, align 8, !tbaa !12
  store i32 0, ptr %7, align 4, !tbaa !8
  br label %26

26:                                               ; preds = %38, %2
  %27 = load i32, ptr %7, align 4, !tbaa !8
  %28 = load i32, ptr %4, align 4, !tbaa !8
  %29 = icmp slt i32 %27, %28
  br i1 %29, label %30, label %41

30:                                               ; preds = %26
  %31 = load ptr, ptr %5, align 8, !tbaa !12
  %32 = load i32, ptr %7, align 4, !tbaa !8
  %33 = sext i32 %32 to i64
  %34 = getelementptr inbounds %struct.Gia_Rpr_t_, ptr %31, i64 %33
  %35 = load i32, ptr %34, align 4
  %36 = and i32 %35, -268435456
  %37 = or i32 %36, 268435455
  store i32 %37, ptr %34, align 4
  br label %38

38:                                               ; preds = %30
  %39 = load i32, ptr %7, align 4, !tbaa !8
  %40 = add nsw i32 %39, 1
  store i32 %40, ptr %7, align 4, !tbaa !8
  br label %26, !llvm.loop !14

41:                                               ; preds = %26
  store i32 0, ptr %11, align 4, !tbaa !8
  store i32 0, ptr %10, align 4, !tbaa !8
  br label %42

42:                                               ; preds = %59, %53, %41
  %43 = load ptr, ptr %3, align 8, !tbaa !3
  %44 = load ptr, ptr %43, align 8, !tbaa !10
  %45 = load ptr, ptr %6, align 8, !tbaa !10
  %46 = icmp ult ptr %44, %45
  br i1 %46, label %47, label %88

47:                                               ; preds = %42
  %48 = load ptr, ptr %3, align 8, !tbaa !3
  %49 = call i32 @Gia_AigerReadUnsigned(ptr noundef %48)
  store i32 %49, ptr %8, align 4, !tbaa !8
  %50 = load i32, ptr %8, align 4, !tbaa !8
  %51 = and i32 %50, 1
  %52 = icmp ne i32 %51, 0
  br i1 %52, label %53, label %59

53:                                               ; preds = %47
  %54 = load i32, ptr %8, align 4, !tbaa !8
  %55 = ashr i32 %54, 1
  %56 = load i32, ptr %10, align 4, !tbaa !8
  %57 = add nsw i32 %56, %55
  store i32 %57, ptr %10, align 4, !tbaa !8
  %58 = load i32, ptr %10, align 4, !tbaa !8
  store i32 %58, ptr %11, align 4, !tbaa !8
  br label %42, !llvm.loop !16

59:                                               ; preds = %47
  %60 = load i32, ptr %8, align 4, !tbaa !8
  %61 = ashr i32 %60, 1
  store i32 %61, ptr %8, align 4, !tbaa !8
  %62 = load i32, ptr %8, align 4, !tbaa !8
  %63 = and i32 %62, 1
  store i32 %63, ptr %9, align 4, !tbaa !8
  %64 = load i32, ptr %8, align 4, !tbaa !8
  %65 = ashr i32 %64, 1
  store i32 %65, ptr %8, align 4, !tbaa !8
  %66 = load i32, ptr %8, align 4, !tbaa !8
  %67 = load i32, ptr %11, align 4, !tbaa !8
  %68 = add nsw i32 %67, %66
  store i32 %68, ptr %11, align 4, !tbaa !8
  %69 = load i32, ptr %9, align 4, !tbaa !8
  %70 = load ptr, ptr %5, align 8, !tbaa !12
  %71 = load i32, ptr %11, align 4, !tbaa !8
  %72 = sext i32 %71 to i64
  %73 = getelementptr inbounds %struct.Gia_Rpr_t_, ptr %70, i64 %72
  %74 = load i32, ptr %73, align 4
  %75 = and i32 %69, 1
  %76 = shl i32 %75, 28
  %77 = and i32 %74, -268435457
  %78 = or i32 %77, %76
  store i32 %78, ptr %73, align 4
  %79 = load i32, ptr %10, align 4, !tbaa !8
  %80 = load ptr, ptr %5, align 8, !tbaa !12
  %81 = load i32, ptr %11, align 4, !tbaa !8
  %82 = sext i32 %81 to i64
  %83 = getelementptr inbounds %struct.Gia_Rpr_t_, ptr %80, i64 %82
  %84 = load i32, ptr %83, align 4
  %85 = and i32 %79, 268435455
  %86 = and i32 %84, -268435456
  %87 = or i32 %86, %85
  store i32 %87, ptr %83, align 4
  br label %42, !llvm.loop !16

88:                                               ; preds = %42
  %89 = load ptr, ptr %5, align 8, !tbaa !12
  call void @llvm.lifetime.end.p0(i64 4, ptr %11) #10
  call void @llvm.lifetime.end.p0(i64 4, ptr %10) #10
  call void @llvm.lifetime.end.p0(i64 4, ptr %9) #10
  call void @llvm.lifetime.end.p0(i64 4, ptr %8) #10
  call void @llvm.lifetime.end.p0(i64 4, ptr %7) #10
  call void @llvm.lifetime.end.p0(i64 8, ptr %6) #10
  call void @llvm.lifetime.end.p0(i64 8, ptr %5) #10
  ret ptr %89
}