; Function Attrs: nofree nounwind uwtable
define noalias noundef ptr @Gia_AigerReadEquivClasses(ptr noundef captures(none) %0, i32 noundef %1) local_unnamed_addr #0 {
  %3 = load ptr, ptr %0, align 8, !tbaa !3
  br label %4

4:                                                ; preds = %4, %2
  %.08.i = phi i32 [ 0, %2 ], [ %9, %4 ]
  %.047.i = phi i32 [ 0, %2 ], [ %10, %4 ]
  %.056.i = phi ptr [ %3, %2 ], [ %6, %4 ]
  %5 = shl i32 %.08.i, 8
  %6 = getelementptr inbounds nuw i8, ptr %.056.i, i64 1
  %7 = load i8, ptr %.056.i, align 1, !tbaa !8
  %8 = zext i8 %7 to i32
  %9 = or disjoint i32 %5, %8
  %10 = add nuw nsw i32 %.047.i, 1
  %exitcond.not.i = icmp eq i32 %10, 4
  br i1 %exitcond.not.i, label %Gia_AigerReadInt.exit, label %4, !llvm.loop !9

Gia_AigerReadInt.exit:                            ; preds = %4
  %11 = sext i32 %9 to i64
  %12 = getelementptr inbounds i8, ptr %3, i64 %11
  %13 = getelementptr inbounds nuw i8, ptr %3, i64 4
  store ptr %13, ptr %0, align 8, !tbaa !3
  %14 = sext i32 %1 to i64
  %15 = tail call noalias ptr @calloc(i64 noundef %14, i64 noundef 4) #15
  %16 = icmp sgt i32 %1, 0
  br i1 %16, label %.lr.ph.preheader, label %.preheader

.lr.ph.preheader:                                 ; preds = %Gia_AigerReadInt.exit
  %wide.trip.count = zext nneg i32 %1 to i64
  br label %.lr.ph

.preheader:                                       ; preds = %.lr.ph, %Gia_AigerReadInt.exit
  %17 = icmp sgt i32 %9, 4
  br i1 %17, label %.lr.ph37, label %.outer._crit_edge

.lr.ph:                                           ; preds = %.lr.ph.preheader, %.lr.ph
  %indvars.iv = phi i64 [ 0, %.lr.ph.preheader ], [ %indvars.iv.next, %.lr.ph ]
  %18 = getelementptr inbounds nuw %struct.Gia_Rpr_t_, ptr %15, i64 %indvars.iv
  %19 = load i32, ptr %18, align 4
  %20 = or i32 %19, 268435455
  store i32 %20, ptr %18, align 4
  %indvars.iv.next = add nuw nsw i64 %indvars.iv, 1
  %exitcond.not = icmp eq i64 %indvars.iv.next, %wide.trip.count
  br i1 %exitcond.not, label %.preheader, label %.lr.ph, !llvm.loop !11

21:                                               ; preds = %.lr.ph37, %44
  %.036 = phi i32 [ %.0.ph45, %.lr.ph37 ], [ %46, %44 ]
  %22 = phi ptr [ %.promoted3943, %.lr.ph37 ], [ %.promoted40, %44 ]
  %23 = getelementptr inbounds nuw i8, ptr %22, i64 1
  store ptr %23, ptr %0, align 8, !tbaa !3
  %24 = load i8, ptr %22, align 1, !tbaa !8
  %25 = zext i8 %24 to i32
  %.not7.i = icmp sgt i8 %24, -1
  br i1 %.not7.i, label %Gia_AigerReadUnsigned.exit, label %.lr.ph.i

.lr.ph.i:                                         ; preds = %21, %.lr.ph.i
  %26 = phi i32 [ %35, %.lr.ph.i ], [ %25, %21 ]
  %27 = phi ptr [ %33, %.lr.ph.i ], [ %23, %21 ]
  %.09.i = phi i32 [ %32, %.lr.ph.i ], [ 0, %21 ]
  %.068.i = phi i32 [ %29, %.lr.ph.i ], [ 0, %21 ]
  %28 = and i32 %26, 127
  %29 = add i32 %.068.i, 1
  %30 = mul i32 %.068.i, 7
  %31 = shl i32 %28, %30
  %32 = or i32 %31, %.09.i
  %33 = getelementptr inbounds nuw i8, ptr %27, i64 1
  store ptr %33, ptr %0, align 8, !tbaa !3
  %34 = load i8, ptr %27, align 1, !tbaa !8
  %35 = zext i8 %34 to i32
  %.not.i = icmp sgt i8 %34, -1
  br i1 %.not.i, label %._crit_edge.loopexit.i, label %.lr.ph.i, !llvm.loop !12

._crit_edge.loopexit.i:                           ; preds = %.lr.ph.i
  %36 = mul i32 %29, 7
  br label %Gia_AigerReadUnsigned.exit

Gia_AigerReadUnsigned.exit:                       ; preds = %21, %._crit_edge.loopexit.i
  %.promoted40 = phi ptr [ %23, %21 ], [ %33, %._crit_edge.loopexit.i ]
  %.06.lcssa.i = phi i32 [ 0, %21 ], [ %36, %._crit_edge.loopexit.i ]
  %.0.lcssa.i = phi i32 [ 0, %21 ], [ %32, %._crit_edge.loopexit.i ]
  %.lcssa.i = phi i32 [ %25, %21 ], [ %35, %._crit_edge.loopexit.i ]
  %37 = shl i32 %.lcssa.i, %.06.lcssa.i
  %38 = or i32 %37, %.0.lcssa.i
  %39 = and i32 %38, 1
  %.not = icmp eq i32 %39, 0
  br i1 %.not, label %44, label %.outer

.outer:                                           ; preds = %Gia_AigerReadUnsigned.exit
  %40 = ashr i32 %38, 1
  %41 = add nsw i32 %40, %.0.ph45
  %42 = icmp ult ptr %.promoted40, %12
  br i1 %42, label %.lr.ph37, label %.outer._crit_edge, !llvm.loop !13

.lr.ph37:                                         ; preds = %.preheader, %.outer
  %.0.ph45 = phi i32 [ %41, %.outer ], [ 0, %.preheader ]
  %.promoted3943 = phi ptr [ %.promoted40, %.outer ], [ %13, %.preheader ]
  %43 = and i32 %.0.ph45, 268435455
  br label %21

44:                                               ; preds = %Gia_AigerReadUnsigned.exit
  %45 = ashr i32 %38, 2
  %46 = add nsw i32 %45, %.036
  %47 = sext i32 %46 to i64
  %48 = getelementptr inbounds %struct.Gia_Rpr_t_, ptr %15, i64 %47
  %49 = load i32, ptr %48, align 4
  %50 = shl i32 %38, 27
  %51 = and i32 %50, 268435456
  %52 = and i32 %49, -536870912
  %53 = or disjoint i32 %51, %43
  %54 = or disjoint i32 %53, %52
  store i32 %54, ptr %48, align 4
  %55 = icmp ult ptr %.promoted40, %12
  br i1 %55, label %21, label %.outer._crit_edge, !llvm.loop !13

.outer._crit_edge:                                ; preds = %.outer, %44, %.preheader
  ret ptr %15
}